target datalayout = "e-m:e-p270:32:32-p271:32:32-p272:64:64-i64:64-i128:128-f80:128-n8:16:32:64-S128"
target triple = "x86_64-pc-linux-gnu"

%struct.H5CX_node_t = type { %struct.H5CX_t, ptr }
%struct.H5CX_t = type { i64, ptr, i64, ptr, i64, ptr, i64, ptr, i64, ptr, i64, ptr, i64, i32, i64, i8, ptr, i8, ptr, i8, i32, i8, [3 x double], i8, i64, i8, i32, i8, %struct.H5Z_cb_t, i8, ptr, i8, %struct.H5T_vlen_alloc_info_t, i8, %struct.H5T_conv_cb_t, i8, i32, i8, i8, i8, i32, i8, i8, i32, i8, i8, i32, i8, i32, i8, i64, i8, i8, i8, i8, i8, ptr, i8, ptr, i8, i32, i8, i32, i8, %struct.H5VL_connector_prop_t, i8, ptr, i8 }
%struct.H5Z_cb_t = type { ptr, ptr }
%struct.H5T_vlen_alloc_info_t = type { ptr, ptr, ptr, ptr }
%struct.H5T_conv_cb_t = type { ptr, ptr }
%struct.H5VL_connector_prop_t = type { ptr, ptr }
%struct.H5T_t = type { %struct.H5O_shared_t, ptr, %struct.H5O_loc_t, %struct.H5G_name_t, ptr }
%struct.H5O_shared_t = type { i32, ptr, i32, %union.anon }
%union.anon = type { %struct.H5O_mesg_loc_t }
%struct.H5O_mesg_loc_t = type { i32, i64 }
%struct.H5O_loc_t = type { ptr, i64, i8 }
%struct.H5G_name_t = type { ptr, ptr, i32 }
%struct.H5T_shared_t = type { i64, i32, i32, i64, i32, i8, ptr, ptr, %union.anon.0 }
%union.anon.0 = type { %struct.H5T_array_t }
%struct.H5T_array_t = type { i64, i32, [32 x i64] }
%struct.H5T_atomic_t = type { i32, i64, i64, i32, i32, %union.anon.1 }
%union.anon.1 = type { %struct.anon.2 }
%struct.anon.2 = type { i64, i64, i64, i64, i64, i64, i32, i32 }

@H5_libinit_g = external global i8, align 1
@H5_libterm_g = external global i8, align 1
@.str = private unnamed_addr constant [102 x i8] c"generated/home/dtcxzyw/WorkSpace/Projects/compilers/llvm-opt-benchmark/bench/hdf5/hdf5/src/H5Tfloat.c\00", align 1
@H5E_FUNC_g = external global i64, align 8
@H5E_CANTINIT_g = external global i64, align 8
@.str.1 = private unnamed_addr constant [30 x i8] c"library initialization failed\00", align 1
@H5T_init_g = external global i8, align 1
@.str.2 = private unnamed_addr constant [32 x i8] c"interface initialization failed\00", align 1
@H5E_CANTSET_g = external global i64, align 8
@.str.3 = private unnamed_addr constant [22 x i8] c"can't set API context\00", align 1
@H5E_ARGS_g = external global i64, align 8
@H5E_BADTYPE_g = external global i64, align 8
@.str.4 = private unnamed_addr constant [15 x i8] c"not a datatype\00", align 1
@H5E_DATATYPE_g = external global i64, align 8
@.str.5 = private unnamed_addr constant [41 x i8] c"operation not defined for datatype class\00", align 1
@__func__.H5Tget_ebias = private unnamed_addr constant [13 x i8] c"H5Tget_ebias\00", align 1

; Function Attrs: nounwind uwtable
define i64 @H5Tget_ebias(i64 noundef %0) #0 {
  %2 = alloca i64, align 8
  %3 = alloca ptr, align 8
  %4 = alloca i64, align 8
  %5 = alloca %struct.H5CX_node_t, align 8
  %6 = alloca i8, align 1
  %7 = alloca i8, align 1
  store i64 %0, ptr %2, align 8, !tbaa !3
  call void @llvm.lifetime.start.p0(i64 8, ptr %3) #5
  call void @llvm.lifetime.start.p0(i64 8, ptr %4) #5
  call void @llvm.lifetime.start.p0(i64 480, ptr %5) #5
  call void @llvm.memset.p0.i64(ptr align 8 %5, i8 0, i64 480, i1 false)
  call void @llvm.lifetime.start.p0(i64 1, ptr %6) #5
  store i8 0, ptr %6, align 1, !tbaa !12
  call void @llvm.lifetime.start.p0(i64 1, ptr %7) #5
  store i8 0, ptr %7, align 1, !tbaa !12
  br label %8

8:                                                ; preds = %1
  %9 = load i8, ptr @H5_libinit_g, align 1, !tbaa !12, !range !14, !noundef !15
  %10 = trunc i8 %9 to i1
  br i1 %10, label %15, label %11

11:                                               ; preds = %8
  %12 = load i8, ptr @H5_libterm_g, align 1, !tbaa !12, !range !14, !noundef !15
  %13 = trunc i8 %12 to i1
  %14 = xor i1 %13, true
  br label %15

15:                                               ; preds = %11, %8
  %16 = phi i1 [ false, %8 ], [ %14, %11 ]
  %17 = xor i1 %16, true
  %18 = xor i1 %17, true
  %19 = zext i1 %18 to i32
  %20 = sext i32 %19 to i64
  %21 = call i64 @llvm.expect.i64(i64 %20, i64 0)
  %22 = icmp ne i64 %21, 0
  br i1 %22, label %23, label %52

23:                                               ; preds = %15
  %24 = call i32 @H5_init_library()
  %25 = icmp slt i32 %24, 0
  %26 = xor i1 %25, true
  %27 = xor i1 %26, true
  %28 = zext i1 %27 to i32
  %29 = sext i32 %28 to i64
  %30 = call i64 @llvm.expect.i64(i64 %29, i64 0)
  %31 = icmp ne i64 %30, 0
  br i1 %31, label %32, label %51

32:                                               ; preds = %23
  br label %33

33:                                               ; preds = %32
  br label %34

34:                                               ; preds = %33
  br label %35

35:                                               ; preds = %34
  %36 = load i64, ptr @H5E_FUNC_g, align 8, !tbaa !3
  %37 = load i64, ptr @H5E_CANTINIT_g, align 8, !tbaa !3
  %38 = call i32 (ptr, ptr, i32, i64, i64, ptr, ...) @H5E_printf_stack(ptr noundef @.str, ptr noundef @__func__.H5Tget_ebias, i32 noundef 150, i64 noundef %36, i64 noundef %37, ptr noundef @.str.1)
  br label %39

39:                                               ; preds = %35
  br label %40

40:                                               ; preds = %39
  store i8 1, ptr %7, align 1, !tbaa !12
  %41 = load i8, ptr %7, align 1, !tbaa !12, !range !14, !noundef !15
  %42 = trunc i8 %41 to i1
  %43 = zext i1 %42 to i8
  store i8 %43, ptr %7, align 1, !tbaa !12
  br label %44

44:                                               ; preds = %40
  br label %45

45:                                               ; preds = %44
  br label %46

46:                                               ; preds = %45
  store i64 0, ptr %4, align 8, !tbaa !3
  br label %199

47:                                               ; No predecessors!
  br label %48

48:                                               ; preds = %47
  br label %49

49:                                               ; preds = %48
  br label %50

50:                                               ; preds = %49
  br label %51

51:                                               ; preds = %50, %23
  br label %52

52:                                               ; preds = %51, %15
  %53 = load i8, ptr @H5T_init_g, align 1, !tbaa !12, !range !14, !noundef !15
  %54 = trunc i8 %53 to i1
  br i1 %54, label %59, label %55

55:                                               ; preds = %52
  %56 = load i8, ptr @H5_libterm_g, align 1, !tbaa !12, !range !14, !noundef !15
  %57 = trunc i8 %56 to i1
  %58 = xor i1 %57, true
  br label %59

59:                                               ; preds = %55, %52
  %60 = phi i1 [ false, %52 ], [ %58, %55 ]
  %61 = xor i1 %60, true
  %62 = xor i1 %61, true
  %63 = zext i1 %62 to i32
  %64 = sext i32 %63 to i64
  %65 = call i64 @llvm.expect.i64(i64 %64, i64 0)
  %66 = icmp ne i64 %65, 0
  br i1 %66, label %67, label %90

67:                                               ; preds = %59
  store i8 1, ptr @H5T_init_g, align 1, !tbaa !12
  %68 = call i32 @H5T__init_package()
  %69 = icmp slt i32 %68, 0
  br i1 %69, label %70, label %89

70:                                               ; preds = %67
  store i8 0, ptr @H5T_init_g, align 1, !tbaa !12
  br label %71

71:                                               ; preds = %70
  br label %72

72:                                               ; preds = %71
  br label %73

73:                                               ; preds = %72
  %74 = load i64, ptr @H5E_FUNC_g, align 8, !tbaa !3
  %75 = load i64, ptr @H5E_CANTINIT_g, align 8, !tbaa !3
  %76 = call i32 (ptr, ptr, i32, i64, i64, ptr, ...) @H5E_printf_stack(ptr noundef @.str, ptr noundef @__func__.H5Tget_ebias, i32 noundef 150, i64 noundef %74, i64 noundef %75, ptr noundef @.str.2)
  br label %77

77:                                               ; preds = %73
  br label %78

78:                                               ; preds = %77
  store i8 1, ptr %7, align 1, !tbaa !12
  %79 = load i8, ptr %7, align 1, !tbaa !12, !range !14, !noundef !15
  %80 = trunc i8 %79 to i1
  %81 = zext i1 %80 to i8
  store i8 %81, ptr %7, align 1, !tbaa !12
  br label %82

82:                                               ; preds = %78
  br label %83

83:                                               ; preds = %82
  br label %84

84:                                               ; preds = %83
  store i64 0, ptr %4, align 8, !tbaa !3
  br label %199

85:                                               ; No predecessors!
  br label %86

86:                                               ; preds = %85
  br label %87

87:                                               ; preds = %86
  br label %88

88:                                               ; preds = %87
  br label %89

89:                                               ; preds = %88, %67
  br label %90

90:                                               ; preds = %89, %59
  br label %91

91:                                               ; preds = %90
  br label %92

92:                                               ; preds = %91
  br label %93

93:                                               ; preds = %92
  %94 = call i32 @H5CX_push(ptr noundef %5)
  %95 = icmp slt i32 %94, 0
  %96 = xor i1 %95, true
  %97 = xor i1 %96, true
  %98 = zext i1 %97 to i32
  %99 = sext i32 %98 to i64
  %100 = call i64 @llvm.expect.i64(i64 %99, i64 0)
  %101 = icmp ne i64 %100, 0
  br i1 %101, label %102, label %121

102:                                              ; preds = %93
  br label %103

103:                                              ; preds = %102
  br label %104

104:                                              ; preds = %103
  br label %105

105:                                              ; preds = %104
  %106 = load i64, ptr @H5E_FUNC_g, align 8, !tbaa !3
  %107 = load i64, ptr @H5E_CANTSET_g, align 8, !tbaa !3
  %108 = call i32 (ptr, ptr, i32, i64, i64, ptr, ...) @H5E_printf_stack(ptr noundef @.str, ptr noundef @__func__.H5Tget_ebias, i32 noundef 150, i64 noundef %106, i64 noundef %107, ptr noundef @.str.3)
  br label %109

109:                                              ; preds = %105
  br label %110

110:                                              ; preds = %109
  store i8 1, ptr %7, align 1, !tbaa !12
  %111 = load i8, ptr %7, align 1, !tbaa !12, !range !14, !noundef !15
  %112 = trunc i8 %111 to i1
  %113 = zext i1 %112 to i8
  store i8 %113, ptr %7, align 1, !tbaa !12
  br label %114

114:                                              ; preds = %110
  br label %115

115:                                              ; preds = %114
  br label %116

116:                                              ; preds = %115
  store i64 0, ptr %4, align 8, !tbaa !3
  br label %199

117:                                              ; No predecessors!
  br label %118

118:                                              ; preds = %117
  br label %119

119:                                              ; preds = %118
  br label %120

120:                                              ; preds = %119
  br label %122

121:                                              ; preds = %93
  store i8 1, ptr %6, align 1, !tbaa !12
  br label %122

122:                                              ; preds = %121, %120
  br label %123

123:                                              ; preds = %122
  br label %124

124:                                              ; preds = %123
  %125 = call i32 @H5E_clear_stack()
  %126 = load i64, ptr %2, align 8, !tbaa !3
  %127 = call ptr @H5I_object_verify(i64 noundef %126, i32 noundef 3)
  store ptr %127, ptr %3, align 8, !tbaa !16
  %128 = icmp eq ptr null, %127
  br i1 %128, label %129, label %148

129:                                              ; preds = %124
  br label %130

130:                                              ; preds = %129
  br label %131

131:                                              ; preds = %130
  br label %132

132:                                              ; preds = %131
  %133 = load i64, ptr @H5E_ARGS_g, align 8, !tbaa !3
  %134 = load i64, ptr @H5E_BADTYPE_g, align 8, !tbaa !3
  %135 = call i32 (ptr, ptr, i32, i64, i64, ptr, ...) @H5E_printf_stack(ptr noundef @.str, ptr noundef @__func__.H5Tget_ebias, i32 noundef 154, i64 noundef %133, i64 noundef %134, ptr noundef @.str.4)
  br label %136

136:                                              ; preds = %132
  br label %137

137:                                              ; preds = %136
  store i8 1, ptr %7, align 1, !tbaa !12
  %138 = load i8, ptr %7, align 1, !tbaa !12, !range !14, !noundef !15
  %139 = trunc i8 %138 to i1
  %140 = zext i1 %139 to i8
  store i8 %140, ptr %7, align 1, !tbaa !12
  br label %141

141:                                              ; preds = %137
  br label %142

142:                                              ; preds = %141
  br label %143

143:                                              ; preds = %142
  store i64 0, ptr %4, align 8, !tbaa !3
  br label %199

144:                                              ; No predecessors!
  br label %145

145:                                              ; preds = %144
  br label %146

146:                                              ; preds = %145
  br label %147

147:                                              ; preds = %146
  br label %148

148:                                              ; preds = %147, %124
  br label %149

149:                                              ; preds = %156, %148
  %150 = load ptr, ptr %3, align 8, !tbaa !16
  %151 = getelementptr inbounds nuw %struct.H5T_t, ptr %150, i32 0, i32 1
  %152 = load ptr, ptr %151, align 8, !tbaa !18
  %153 = getelementptr inbounds nuw %struct.H5T_shared_t, ptr %152, i32 0, i32 6
  %154 = load ptr, ptr %153, align 8, !tbaa !27
  %155 = icmp ne ptr %154, null
  br i1 %155, label %156, label %162

156:                                              ; preds = %149
  %157 = load ptr, ptr %3, align 8, !tbaa !16
  %158 = getelementptr inbounds nuw %struct.H5T_t, ptr %157, i32 0, i32 1
  %159 = load ptr, ptr %158, align 8, !tbaa !18
  %160 = getelementptr inbounds nuw %struct.H5T_shared_t, ptr %159, i32 0, i32 6
  %161 = load ptr, ptr %160, align 8, !tbaa !27
  store ptr %161, ptr %3, align 8, !tbaa !16
  br label %149, !llvm.loop !35

162:                                              ; preds = %149
  %163 = load ptr, ptr %3, align 8, !tbaa !16
  %164 = getelementptr inbounds nuw %struct.H5T_t, ptr %163, i32 0, i32 1
  %165 = load ptr, ptr %164, align 8, !tbaa !18
  %166 = getelementptr inbounds nuw %struct.H5T_shared_t, ptr %165, i32 0, i32 2
  %167 = load i32, ptr %166, align 4, !tbaa !31
  %168 = icmp ne i32 1, %167
  br i1 %168, label %169, label %188

169:                                              ; preds = %162
  br label %170

170:                                              ; preds = %169
  br label %171

171:                                              ; preds = %170
  br label %172

172:                                              ; preds = %171
  %173 = load i64, ptr @H5E_DATATYPE_g, align 8, !tbaa !3
  %174 = load i64, ptr @H5E_BADTYPE_g, align 8, !tbaa !3
  %175 = call i32 (ptr, ptr, i32, i64, i64, ptr, ...) @H5E_printf_stack(ptr noundef @.str, ptr noundef @__func__.H5Tget_ebias, i32 noundef 158, i64 noundef %173, i64 noundef %174, ptr noundef @.str.5)
  br label %176

176:                                              ; preds = %172
  br label %177

177:                                              ; preds = %176
  store i8 1, ptr %7, align 1, !tbaa !12
  %178 = load i8, ptr %7, align 1, !tbaa !12, !range !14, !noundef !15
  %179 = trunc i8 %178 to i1
  %180 = zext i1 %179 to i8
  store i8 %180, ptr %7, align 1, !tbaa !12
  br label %181

181:                                              ; preds = %177
  br label %182

182:                                              ; preds = %181
  br label %183

183:                                              ; preds = %182
  store i64 0, ptr %4, align 8, !tbaa !3
  br label %199

184:                                              ; No predecessors!
  br label %185

185:                                              ; preds = %184
  br label %186

186:                                              ; preds = %185
  br label %187

187:                                              ; preds = %186
  br label %188

188:                                              ; preds = %187, %162
  br label %189

189:                                              ; preds = %188
  %190 = load ptr, ptr %3, align 8, !tbaa !16
  %191 = getelementptr inbounds nuw %struct.H5T_t, ptr %190, i32 0, i32 1
  %192 = load ptr, ptr %191, align 8, !tbaa !18
  %193 = getelementptr inbounds nuw %struct.H5T_shared_t, ptr %192, i32 0, i32 8
  %194 = getelementptr inbounds nuw %struct.H5T_atomic_t, ptr %193, i32 0, i32 5
  %195 = getelementptr inbounds nuw %struct.anon.2, ptr %194, i32 0, i32 3
  %196 = load i64, ptr %195, align 8, !tbaa !32
  store i64 %196, ptr %4, align 8, !tbaa !3
  br label %197

197:                                              ; preds = %189
  br label %198

198:                                              ; preds = %197
  br label %199

199:                                              ; preds = %198, %183, %143, %116, %84, %46
  %200 = load i8, ptr %6, align 1, !tbaa !12, !range !14, !noundef !15
  %201 = trunc i8 %200 to i1
  %202 = xor i1 %201, true
  %203 = xor i1 %202, true
  %204 = zext i1 %203 to i32
  %205 = sext i32 %204 to i64
  %206 = call i64 @llvm.expect.i64(i64 %205, i64 1)
  %207 = icmp ne i64 %206, 0
  br i1 %207, label %208, label %210

208:                                              ; preds = %199
  %209 = call i32 @H5CX_pop(i1 noundef zeroext true)
  store i8 0, ptr %6, align 1, !tbaa !12
  br label %210

210:                                              ; preds = %208, %199
  %211 = load i8, ptr %7, align 1, !tbaa !12, !range !14, !noundef !15
  %212 = trunc i8 %211 to i1
  %213 = xor i1 %212, true
  %214 = xor i1 %213, true
  %215 = zext i1 %214 to i32
  %216 = sext i32 %215 to i64
  %217 = call i64 @llvm.expect.i64(i64 %216, i64 0)
  %218 = icmp ne i64 %217, 0
  br i1 %218, label %219, label %221

219:                                              ; preds = %210
  %220 = call i32 @H5E_dump_api_stack()
  br label %221

221:                                              ; preds = %219, %210
  %222 = load i64, ptr %4, align 8, !tbaa !3
  call void @llvm.lifetime.end.p0(i64 1, ptr %7) #5
  call void @llvm.lifetime.end.p0(i64 1, ptr %6) #5
  call void @llvm.lifetime.end.p0(i64 480, ptr %5) #5
  call void @llvm.lifetime.end.p0(i64 8, ptr %4) #5
  call void @llvm.lifetime.end.p0(i64 8, ptr %3) #5
  ret i64 %222
}